target datalayout = "e-m:e-p270:32:32-p271:32:32-p272:64:64-i64:64-i128:128-f80:128-n8:16:32:64-S128"
target triple = "x86_64-pc-linux-gnu"

%"class.llvm::ilist_iterator_w_bits" = type <{ ptr, i8, i8, [6 x i8] }>
%"class.llvm::BasicBlock" = type { %"class.llvm::Value", %"class.llvm::ilist_node_with_parent", i8, i32, %"class.llvm::SymbolTableList", ptr }
%"class.llvm::Value" = type { i8, i8, i16, i32, ptr, ptr }
%"class.llvm::ilist_node_with_parent" = type { %"class.llvm::ilist_node" }
%"class.llvm::ilist_node" = type { %"class.llvm::ilist_node_impl" }
%"class.llvm::ilist_node_impl" = type { %"class.llvm::ilist_node_base" }
%"class.llvm::ilist_node_base" = type { %"class.llvm::ilist_detail::node_base_prevnext" }
%"class.llvm::ilist_detail::node_base_prevnext" = type { ptr, ptr }
%"class.llvm::SymbolTableList" = type { %"class.llvm::iplist_impl" }
%"class.llvm::iplist_impl" = type { %"class.llvm::simple_ilist" }
%"class.llvm::simple_ilist" = type { %"class.llvm::ilist_sentinel" }
%"class.llvm::ilist_sentinel" = type { %"class.llvm::ilist_node_impl.0" }
%"class.llvm::ilist_node_impl.0" = type { %"class.llvm::ilist_node_base.1" }
%"class.llvm::ilist_node_base.1" = type { %"class.llvm::ilist_detail::node_base_prevnext.2", %"class.llvm::ilist_detail::node_base_parent.3" }
%"class.llvm::ilist_detail::node_base_prevnext.2" = type { ptr, ptr }
%"class.llvm::ilist_detail::node_base_parent.3" = type { ptr }
%"class.llvm::SmallVectorBase" = type { ptr, i32, i32 }

; Function Attrs: mustprogress nounwind uwtable
define linkonce_odr hidden noundef ptr @_ZNK4llvm25SmallVectorTemplateCommonIPNS_5ValueEvE10getFirstElEv(ptr noundef nonnull align 8 dereferenceable(16) %0) #0 comdat align 2 {
  %2 = alloca ptr, align 8
  store ptr %0, ptr %2, align 8
  %3 = load ptr, ptr %2, align 8
  %4 = getelementptr inbounds i8, ptr %3, i64 16
  ret ptr %4
}

; Function Attrs: mustprogress nounwind uwtable
define linkonce_odr hidden void @_ZN4llvm25SmallVectorTemplateCommonIPNS_5ValueEvE8grow_podEmm(ptr noundef nonnull align 8 dereferenceable(16) %0, i64 noundef %1, i64 noundef %2) #0 comdat align 2 {
  %4 = alloca ptr, align 8
  %5 = alloca i64, align 8
  %6 = alloca i64, align 8
  store ptr %0, ptr %4, align 8
  store i64 %1, ptr %5, align 8
  store i64 %2, ptr %6, align 8
  %7 = load ptr, ptr %4, align 8
  %8 = call noundef ptr @_ZNK4llvm25SmallVectorTemplateCommonIPNS_5ValueEvE10getFirstElEv(ptr noundef nonnull align 8 dereferenceable(16) %7)
  %9 = load i64, ptr %5, align 8
  %10 = load i64, ptr %6, align 8
  call void @_ZN4llvm15SmallVectorBaseIjE8grow_podEPvmm(ptr noundef nonnull align 8 dereferenceable(16) %7, ptr noundef %8, i64 noundef %9, i64 noundef %10)
  ret void
}

; Function Attrs: mustprogress nounwind uwtable
define linkonce_odr hidden void @_ZN4llvm23SmallVectorTemplateBaseIPNS_5ValueELb1EE4growEm(ptr noundef nonnull align 8 dereferenceable(16) %0, i64 noundef %1) #0 comdat align 2 {
  %3 = alloca ptr, align 8
  %4 = alloca i64, align 8
  store ptr %0, ptr %3, align 8
  store i64 %1, ptr %4, align 8
  %5 = load ptr, ptr %3, align 8
  %6 = load i64, ptr %4, align 8
  call void @_ZN4llvm25SmallVectorTemplateCommonIPNS_5ValueEvE8grow_podEmm(ptr noundef nonnull align 8 dereferenceable(16) %5, i64 noundef %6, i64 noundef 8)
  ret void
}

; Function Attrs: mustprogress nounwind uwtable
define linkonce_odr hidden noundef ptr @_ZNK4llvm12ilist_detail18node_base_prevnextINS_15ilist_node_baseILb0ENS_10BasicBlockEEELb0EE7getNextEv(ptr noundef nonnull align 8 dereferenceable(16) %0) #0 comdat align 2 {
  %2 = alloca ptr, align 8
  store ptr %0, ptr %2, align 8
  %3 = load ptr, ptr %2, align 8
  %4 = getelementptr inbounds nuw %"class.llvm::ilist_detail::node_base_prevnext.2", ptr %3, i32 0, i32 1
  %5 = load ptr, ptr %4, align 8
  ret ptr %5
}

; Function Attrs: mustprogress nounwind uwtable
define linkonce_odr hidden noundef ptr @_ZN4llvm25SmallVectorTemplateCommonIPNS_5ValueEvE5beginEv(ptr noundef nonnull align 8 dereferenceable(16) %0) #0 comdat align 2 {
  %2 = alloca ptr, align 8
  store ptr %0, ptr %2, align 8
  %3 = load ptr, ptr %2, align 8
  %4 = getelementptr inbounds nuw %"class.llvm::SmallVectorBase", ptr %3, i32 0, i32 0
  %5 = load ptr, ptr %4, align 8
  ret ptr %5
}

; Function Attrs: mustprogress nounwind uwtable
define linkonce_odr hidden noundef ptr @_ZN4llvm25SmallVectorTemplateCommonIPNS_5ValueEvE32reserveForParamAndGetAddressImplINS_23SmallVectorTemplateBaseIS2_Lb1EEEEEPKS2_PT_RS7_m(ptr noundef %0, ptr noundef nonnull align 8 dereferenceable(8) %1, i64 noundef %2) #0 comdat align 2 {
  %4 = alloca ptr, align 8
  %5 = alloca ptr, align 8
  %6 = alloca ptr, align 8
  %7 = alloca i64, align 8
  %8 = alloca i64, align 8
  %9 = alloca i8, align 1
  %10 = alloca i64, align 8
  store ptr %0, ptr %5, align 8
  store ptr %1, ptr %6, align 8
  store i64 %2, ptr %7, align 8
  %11 = load ptr, ptr %5, align 8
  %12 = call noundef i64 @_ZNK4llvm15SmallVectorBaseIjE4sizeEv(ptr noundef nonnull align 8 dereferenceable(16) %11)
  %13 = load i64, ptr %7, align 8
  %14 = add i64 %12, %13
  store i64 %14, ptr %8, align 8
  %15 = load i64, ptr %8, align 8
  %16 = load ptr, ptr %5, align 8
  %17 = call noundef i64 @_ZNK4llvm15SmallVectorBaseIjE8capacityEv(ptr noundef nonnull align 8 dereferenceable(16) %16)
  %18 = icmp ule i64 %15, %17
  br i1 %18, label %19, label %21

19:                                               ; preds = %3
  %20 = load ptr, ptr %6, align 8
  store ptr %20, ptr %4, align 8
  br label %35

21:                                               ; preds = %3
  store i8 0, ptr %9, align 1
  store i64 -1, ptr %10, align 8
  %22 = load ptr, ptr %5, align 8
  %23 = load i64, ptr %8, align 8
  call void @_ZN4llvm23SmallVectorTemplateBaseIPNS_5ValueELb1EE4growEm(ptr noundef nonnull align 8 dereferenceable(16) %22, i64 noundef %23)
  %24 = load i8, ptr %9, align 1
  %25 = trunc i8 %24 to i1
  br i1 %25, label %26, label %31

26:                                               ; preds = %21
  %27 = load ptr, ptr %5, align 8
  %28 = call noundef ptr @_ZN4llvm25SmallVectorTemplateCommonIPNS_5ValueEvE5beginEv(ptr noundef nonnull align 8 dereferenceable(16) %27)
  %29 = load i64, ptr %10, align 8
  %30 = getelementptr inbounds ptr, ptr %28, i64 %29
  br label %33

31:                                               ; preds = %21
  %32 = load ptr, ptr %6, align 8
  br label %33

33:                                               ; preds = %31, %26
  %34 = phi ptr [ %30, %26 ], [ %32, %31 ]
  store ptr %34, ptr %4, align 8
  br label %35

35:                                               ; preds = %33, %19
  %36 = load ptr, ptr %4, align 8
  ret ptr %36
}

; Function Attrs: mustprogress nounwind uwtable
define linkonce_odr hidden noundef i32 @_ZNK4llvm5Value10getValueIDEv(ptr noundef nonnull align 8 dereferenceable(24) %0) #0 comdat align 2 {
  %2 = alloca ptr, align 8
  store ptr %0, ptr %2, align 8
  %3 = load ptr, ptr %2, align 8
  %4 = getelementptr inbounds nuw %"class.llvm::Value", ptr %3, i32 0, i32 0
  %5 = load i8, ptr %4, align 8
  %6 = zext i8 %5 to i32
  ret i32 %6
}

; Function Attrs: mustprogress nounwind uwtable
define linkonce_odr hidden noundef ptr @_ZN4llvm12ilist_detail10NodeAccess11getValuePtrINS0_12node_optionsINS_11InstructionELb0ELb0EvLb1ENS_10BasicBlockEEEEENT_7pointerEPNS_15ilist_node_implIS7_EE(ptr noundef %0) #0 comdat align 2 {
  %2 = alloca ptr, align 8
  store ptr %0, ptr %2, align 8
  %3 = load ptr, ptr %2, align 8
  %4 = icmp eq ptr %3, null
  br i1 %4, label %7, label %5

5:                                                ; preds = %1
  %6 = getelementptr inbounds i8, ptr %3, i64 -24
  br label %8

7:                                                ; preds = %1
  br label %8

8:                                                ; preds = %7, %5
  %9 = phi ptr [ %6, %5 ], [ null, %7 ]
  ret ptr %9
}

; Function Attrs: mustprogress nounwind uwtable
define linkonce_odr hidden void @_ZN4llvm21ilist_iterator_w_bitsINS_12ilist_detail12node_optionsINS_11InstructionELb0ELb0EvLb1ENS_10BasicBlockEEELb0ELb0EEC2ERNS_15ilist_node_implIS5_EE(ptr noundef nonnull align 8 dereferenceable(10) %0, ptr noundef nonnull align 8 dereferenceable(24) %1) unnamed_addr #0 comdat align 2 {
  %3 = alloca ptr, align 8
  %4 = alloca ptr, align 8
  store ptr %0, ptr %3, align 8
  store ptr %1, ptr %4, align 8
  %5 = load ptr, ptr %3, align 8
  %6 = getelementptr inbounds nuw %"class.llvm::ilist_iterator_w_bits", ptr %5, i32 0, i32 0
  %7 = load ptr, ptr %4, align 8
  store ptr %7, ptr %6, align 8
  %8 = getelementptr inbounds nuw %"class.llvm::ilist_iterator_w_bits", ptr %5, i32 0, i32 1
  store i8 0, ptr %8, align 8
  %9 = getelementptr inbounds nuw %"class.llvm::ilist_iterator_w_bits", ptr %5, i32 0, i32 2
  store i8 0, ptr %9, align 1
  ret void
}

; Function Attrs: mustprogress nounwind uwtable
define linkonce_odr hidden noundef ptr @_ZN4llvm15ilist_node_implINS_12ilist_detail12node_optionsINS_11InstructionELb0ELb0EvLb1ENS_10BasicBlockEEEE7getNextEv(ptr noundef nonnull align 8 dereferenceable(24) %0) #0 comdat align 2 {
  %2 = alloca ptr, align 8
  store ptr %0, ptr %2, align 8
  %3 = load ptr, ptr %2, align 8
  %4 = call noundef ptr @_ZNK4llvm12ilist_detail18node_base_prevnextINS_15ilist_node_baseILb0ENS_10BasicBlockEEELb0EE7getNextEv(ptr noundef nonnull align 8 dereferenceable(16) %3)
  ret ptr %4
}

; Function Attrs: mustprogress nounwind uwtable
define linkonce_odr hidden noundef ptr @_ZN4llvm25SmallVectorTemplateCommonIPNS_5ValueEvE3endEv(ptr noundef nonnull align 8 dereferenceable(16) %0) #0 comdat align 2 {
  %2 = alloca ptr, align 8
  store ptr %0, ptr %2, align 8
  %3 = load ptr, ptr %2, align 8
  %4 = call noundef ptr @_ZN4llvm25SmallVectorTemplateCommonIPNS_5ValueEvE5beginEv(ptr noundef nonnull align 8 dereferenceable(16) %3)
  %5 = call noundef i64 @_ZNK4llvm15SmallVectorBaseIjE4sizeEv(ptr noundef nonnull align 8 dereferenceable(16) %3)
  %6 = getelementptr inbounds ptr, ptr %4, i64 %5
  ret ptr %6
}

; Function Attrs: mustprogress nounwind uwtable
define linkonce_odr hidden noundef ptr @_ZN4llvm23SmallVectorTemplateBaseIPNS_5ValueELb1EE28reserveForParamAndGetAddressERS2_m(ptr noundef nonnull align 8 dereferenceable(16) %0, ptr noundef nonnull align 8 dereferenceable(8) %1, i64 noundef %2) #0 comdat align 2 {
  %4 = alloca ptr, align 8
  %5 = alloca ptr, align 8
  %6 = alloca i64, align 8
  store ptr %0, ptr %4, align 8
  store ptr %1, ptr %5, align 8
  store i64 %2, ptr %6, align 8
  %7 = load ptr, ptr %4, align 8
  %8 = load ptr, ptr %5, align 8
  %9 = load i64, ptr %6, align 8
  %10 = call noundef ptr @_ZN4llvm25SmallVectorTemplateCommonIPNS_5ValueEvE32reserveForParamAndGetAddressImplINS_23SmallVectorTemplateBaseIS2_Lb1EEEEEPKS2_PT_RS7_m(ptr noundef %7, ptr noundef nonnull align 8 dereferenceable(8) %8, i64 noundef %9)
  ret ptr %10
}

; Function Attrs: mustprogress nounwind uwtable
define linkonce_odr hidden noundef zeroext i1 @_ZN4llvm11Instruction12isTerminatorEj(i32 noundef %0) #0 comdat align 2 {
  %2 = alloca i32, align 4
  store i32 %0, ptr %2, align 4
  %3 = load i32, ptr %2, align 4
  %4 = icmp uge i32 %3, 1
  br i1 %4, label %5, label %8

5:                                                ; preds = %1
  %6 = load i32, ptr %2, align 4
  %7 = icmp ult i32 %6, 12
  br label %8

8:                                                ; preds = %5, %1
  %9 = phi i1 [ false, %1 ], [ %7, %5 ]
  ret i1 %9
}

; Function Attrs: mustprogress nounwind uwtable
define linkonce_odr hidden noundef i32 @_ZNK4llvm11Instruction9getOpcodeEv(ptr noundef nonnull align 8 dereferenceable(72) %0) #0 comdat align 2 {
  %2 = alloca ptr, align 8
  store ptr %0, ptr %2, align 8
  %3 = load ptr, ptr %2, align 8
  %4 = call noundef i32 @_ZNK4llvm5Value10getValueIDEv(ptr noundef nonnull align 8 dereferenceable(24) %3)
  %5 = sub i32 %4, 29
  ret i32 %5
}

; Function Attrs: mustprogress nounwind uwtable
define linkonce_odr hidden noundef ptr @_ZN4llvm12ilist_detail18SpecificNodeAccessINS0_12node_optionsINS_11InstructionELb0ELb0EvLb1ENS_10BasicBlockEEEE11getValuePtrEPNS_15ilist_node_implIS5_EE(ptr noundef %0) #0 comdat align 2 {
  %2 = alloca ptr, align 8
  store ptr %0, ptr %2, align 8
  %3 = load ptr, ptr %2, align 8
  %4 = call noundef ptr @_ZN4llvm12ilist_detail10NodeAccess11getValuePtrINS0_12node_optionsINS_11InstructionELb0ELb0EvLb1ENS_10BasicBlockEEEEENT_7pointerEPNS_15ilist_node_implIS7_EE(ptr noundef %3)
  ret ptr %4
}

; Function Attrs: mustprogress nounwind uwtable
define linkonce_odr hidden { ptr, i64 } @_ZN4llvm12simple_ilistINS_11InstructionEJNS_19ilist_iterator_bitsILb1EEENS_12ilist_parentINS_10BasicBlockEEEEE3endEv(ptr noundef nonnull align 8 dereferenceable(24) %0) #0 comdat align 2 {
  %2 = alloca %"class.llvm::ilist_iterator_w_bits", align 8
  %3 = alloca ptr, align 8
  store ptr %0, ptr %3, align 8
  %4 = load ptr, ptr %3, align 8
  %5 = getelementptr inbounds nuw %"class.llvm::simple_ilist", ptr %4, i32 0, i32 0
  call void @_ZN4llvm21ilist_iterator_w_bitsINS_12ilist_detail12node_optionsINS_11InstructionELb0ELb0EvLb1ENS_10BasicBlockEEELb0ELb0EEC2ERNS_15ilist_node_implIS5_EE(ptr noundef nonnull align 8 dereferenceable(10) %2, ptr noundef nonnull align 8 dereferenceable(24) %5)
  %6 = load { ptr, i64 }, ptr %2, align 8
  ret { ptr, i64 } %6
}

; Function Attrs: mustprogress nounwind uwtable
define linkonce_odr hidden void @_ZNK4llvm21ilist_iterator_w_bitsINS_12ilist_detail12node_optionsINS_11InstructionELb0ELb0EvLb1ENS_10BasicBlockEEELb0ELb0EE10setHeadBitEb(ptr noundef nonnull align 8 dereferenceable(10) %0, i1 noundef zeroext %1) #0 comdat align 2 {
  %3 = alloca ptr, align 8
  %4 = alloca i8, align 1
  store ptr %0, ptr %3, align 8
  %5 = zext i1 %1 to i8
  store i8 %5, ptr %4, align 1
  %6 = load ptr, ptr %3, align 8
  %7 = load i8, ptr %4, align 1
  %8 = trunc i8 %7 to i1
  %9 = getelementptr inbounds nuw %"class.llvm::ilist_iterator_w_bits", ptr %6, i32 0, i32 1
  %10 = zext i1 %8 to i8
  store i8 %10, ptr %9, align 8
  ret void
}

; Function Attrs: mustprogress nounwind uwtable
define linkonce_odr hidden { ptr, i64 } @_ZN4llvm12simple_ilistINS_11InstructionEJNS_19ilist_iterator_bitsILb1EEENS_12ilist_parentINS_10BasicBlockEEEEE5beginEv(ptr noundef nonnull align 8 dereferenceable(24) %0) #0 comdat align 2 {
  %2 = alloca %"class.llvm::ilist_iterator_w_bits", align 8
  %3 = alloca ptr, align 8
  %4 = alloca %"class.llvm::ilist_iterator_w_bits", align 8
  store ptr %0, ptr %3, align 8
  %5 = load ptr, ptr %3, align 8
  %6 = getelementptr inbounds nuw %"class.llvm::simple_ilist", ptr %5, i32 0, i32 0
  call void @_ZN4llvm21ilist_iterator_w_bitsINS_12ilist_detail12node_optionsINS_11InstructionELb0ELb0EvLb1ENS_10BasicBlockEEELb0ELb0EEC2ERNS_15ilist_node_implIS5_EE(ptr noundef nonnull align 8 dereferenceable(10) %4, ptr noundef nonnull align 8 dereferenceable(24) %6)
  %7 = call noundef nonnull align 8 dereferenceable(10) ptr @_ZN4llvm21ilist_iterator_w_bitsINS_12ilist_detail12node_optionsINS_11InstructionELb0ELb0EvLb1ENS_10BasicBlockEEELb0ELb0EEppEv(ptr noundef nonnull align 8 dereferenceable(10) %4)
  call void @llvm.memcpy.p0.p0.i64(ptr align 8 %2, ptr align 8 %7, i64 16, i1 false)
  %8 = load { ptr, i64 }, ptr %2, align 8
  ret { ptr, i64 } %8
}

; Function Attrs: mustprogress nounwind uwtable
define linkonce_odr hidden noundef nonnull align 8 dereferenceable(10) ptr @_ZN4llvm21ilist_iterator_w_bitsINS_12ilist_detail12node_optionsINS_11InstructionELb0ELb0EvLb1ENS_10BasicBlockEEELb0ELb0EEppEv(ptr noundef nonnull align 8 dereferenceable(10) %0) #0 comdat align 2 {
  %2 = alloca ptr, align 8
  store ptr %0, ptr %2, align 8
  %3 = load ptr, ptr %2, align 8
  %4 = getelementptr inbounds nuw %"class.llvm::ilist_iterator_w_bits", ptr %3, i32 0, i32 0
  %5 = load ptr, ptr %4, align 8
  %6 = call noundef ptr @_ZN4llvm15ilist_node_implINS_12ilist_detail12node_optionsINS_11InstructionELb0ELb0EvLb1ENS_10BasicBlockEEEE7getNextEv(ptr noundef nonnull align 8 dereferenceable(24) %5)
  %7 = getelementptr inbounds nuw %"class.llvm::ilist_iterator_w_bits", ptr %3, i32 0, i32 0
  store ptr %6, ptr %7, align 8
  %8 = getelementptr inbounds nuw %"class.llvm::ilist_iterator_w_bits", ptr %3, i32 0, i32 1
  store i8 0, ptr %8, align 8
  %9 = getelementptr inbounds nuw %"class.llvm::ilist_iterator_w_bits", ptr %3, i32 0, i32 2
  store i8 0, ptr %9, align 1
  ret ptr %3
}

; Function Attrs: mustprogress nounwind uwtable
define linkonce_odr hidden void @_ZN4llvm23SmallVectorTemplateBaseIPNS_5ValueELb1EE9push_backES2_(ptr noundef nonnull align 8 dereferenceable(16) %0, ptr noundef %1) #0 comdat align 2 {
  %3 = alloca ptr, align 8
  %4 = alloca ptr, align 8
  %5 = alloca ptr, align 8
  store ptr %0, ptr %3, align 8
  store ptr %1, ptr %4, align 8
  %6 = load ptr, ptr %3, align 8
  %7 = call noundef ptr @_ZN4llvm23SmallVectorTemplateBaseIPNS_5ValueELb1EE28reserveForParamAndGetAddressERS2_m(ptr noundef nonnull align 8 dereferenceable(16) %6, ptr noundef nonnull align 8 dereferenceable(8) %4, i64 noundef 1)
  store ptr %7, ptr %5, align 8
  %8 = call noundef ptr @_ZN4llvm25SmallVectorTemplateCommonIPNS_5ValueEvE3endEv(ptr noundef nonnull align 8 dereferenceable(16) %6)
  %9 = load ptr, ptr %5, align 8
  call void @llvm.memcpy.p0.p0.i64(ptr align 1 %8, ptr align 8 %9, i64 8, i1 false)
  %10 = call noundef i64 @_ZNK4llvm15SmallVectorBaseIjE4sizeEv(ptr noundef nonnull align 8 dereferenceable(16) %6)
  %11 = add i64 %10, 1
  call void @_ZN4llvm15SmallVectorBaseIjE8set_sizeEm(ptr noundef nonnull align 8 dereferenceable(16) %6, i64 noundef %11)
  ret void
}

; Function Attrs: mustprogress nounwind uwtable
define linkonce_odr hidden noundef zeroext i1 @_ZNK4llvm11Instruction12isTerminatorEv(ptr noundef nonnull align 8 dereferenceable(72) %0) #0 comdat align 2 {
  %2 = alloca ptr, align 8
  store ptr %0, ptr %2, align 8
  %3 = load ptr, ptr %2, align 8
  %4 = call noundef i32 @_ZNK4llvm11Instruction9getOpcodeEv(ptr noundef nonnull align 8 dereferenceable(72) %3)
  %5 = call noundef zeroext i1 @_ZN4llvm11Instruction12isTerminatorEj(i32 noundef %4)
  ret i1 %5
}

; Function Attrs: mustprogress nounwind uwtable
define linkonce_odr hidden noundef nonnull align 8 dereferenceable(72) ptr @_ZNK4llvm21ilist_iterator_w_bitsINS_12ilist_detail12node_optionsINS_11InstructionELb0ELb0EvLb1ENS_10BasicBlockEEELb0ELb0EEdeEv(ptr noundef nonnull align 8 dereferenceable(10) %0) #0 comdat align 2 {
  %2 = alloca ptr, align 8
  store ptr %0, ptr %2, align 8
  %3 = load ptr, ptr %2, align 8
  %4 = getelementptr inbounds nuw %"class.llvm::ilist_iterator_w_bits", ptr %3, i32 0, i32 0
  %5 = load ptr, ptr %4, align 8
  %6 = call noundef ptr @_ZN4llvm12ilist_detail18SpecificNodeAccessINS0_12node_optionsINS_11InstructionELb0ELb0EvLb1ENS_10BasicBlockEEEE11getValuePtrEPNS_15ilist_node_implIS5_EE(ptr noundef %5)
  ret ptr %6
}

; Function Attrs: mustprogress nounwind uwtable
define linkonce_odr hidden noundef zeroext i1 @_ZN4llvmneERKNS_21ilist_iterator_w_bitsINS_12ilist_detail12node_optionsINS_11InstructionELb0ELb0EvLb1ENS_10BasicBlockEEELb0ELb0EEES8_(ptr noundef nonnull align 8 dereferenceable(10) %0, ptr noundef nonnull align 8 dereferenceable(10) %1) #0 comdat {
  %3 = alloca ptr, align 8
  %4 = alloca ptr, align 8
  store ptr %0, ptr %3, align 8
  store ptr %1, ptr %4, align 8
  %5 = load ptr, ptr %3, align 8
  %6 = getelementptr inbounds nuw %"class.llvm::ilist_iterator_w_bits", ptr %5, i32 0, i32 0
  %7 = load ptr, ptr %6, align 8
  %8 = load ptr, ptr %4, align 8
  %9 = getelementptr inbounds nuw %"class.llvm::ilist_iterator_w_bits", ptr %8, i32 0, i32 0
  %10 = load ptr, ptr %9, align 8
  %11 = icmp ne ptr %7, %10
  ret i1 %11
}

; Function Attrs: mustprogress nounwind uwtable
define linkonce_odr hidden { ptr, i64 } @_ZN4llvm10BasicBlock3endEv(ptr noundef nonnull align 8 dereferenceable(80) %0) #0 comdat align 2 {
  %2 = alloca %"class.llvm::ilist_iterator_w_bits", align 8
  %3 = alloca ptr, align 8
  %4 = alloca { ptr, i64 }, align 8
  store ptr %0, ptr %3, align 8
  %5 = load ptr, ptr %3, align 8
  %6 = getelementptr inbounds nuw %"class.llvm::BasicBlock", ptr %5, i32 0, i32 4
  %7 = call { ptr, i64 } @_ZN4llvm12simple_ilistINS_11InstructionEJNS_19ilist_iterator_bitsILb1EEENS_12ilist_parentINS_10BasicBlockEEEEE3endEv(ptr noundef nonnull align 8 dereferenceable(24) %6)
  store { ptr, i64 } %7, ptr %4, align 8
  call void @llvm.memcpy.p0.p0.i64(ptr align 8 %2, ptr align 8 %4, i64 10, i1 false)
  %8 = load { ptr, i64 }, ptr %2, align 8
  ret { ptr, i64 } %8
}

; Function Attrs: mustprogress nounwind uwtable
define linkonce_odr hidden { ptr, i64 } @_ZN4llvm10BasicBlock5beginEv(ptr noundef nonnull align 8 dereferenceable(80) %0) #0 comdat align 2 {
  %2 = alloca %"class.llvm::ilist_iterator_w_bits", align 8
  %3 = alloca ptr, align 8
  %4 = alloca { ptr, i64 }, align 8
  store ptr %0, ptr %3, align 8
  %5 = load ptr, ptr %3, align 8
  %6 = getelementptr inbounds nuw %"class.llvm::BasicBlock", ptr %5, i32 0, i32 4
  %7 = call { ptr, i64 } @_ZN4llvm12simple_ilistINS_11InstructionEJNS_19ilist_iterator_bitsILb1EEENS_12ilist_parentINS_10BasicBlockEEEEE5beginEv(ptr noundef nonnull align 8 dereferenceable(24) %6)
  store { ptr, i64 } %7, ptr %4, align 8
  call void @llvm.memcpy.p0.p0.i64(ptr align 8 %2, ptr align 8 %4, i64 10, i1 false)
  call void @_ZNK4llvm21ilist_iterator_w_bitsINS_12ilist_detail12node_optionsINS_11InstructionELb0ELb0EvLb1ENS_10BasicBlockEEELb0ELb0EE10setHeadBitEb(ptr noundef nonnull align 8 dereferenceable(10) %2, i1 noundef zeroext true)
  %8 = load { ptr, i64 }, ptr %2, align 8
  ret { ptr, i64 } %8
}

; Function Attrs: mustprogress nounwind uwtable
define dso_local void @_ZN4llvm17GenericSSAContextINS_8FunctionEE15appendBlockDefsERNS_15SmallVectorImplIPNS_5ValueEEERNS_10BasicBlockE(ptr noundef nonnull align 8 dereferenceable(16) %0, ptr noundef nonnull align 8 dereferenceable(80) %1) #0 align 2 {
  %3 = alloca ptr, align 8
  %4 = alloca ptr, align 8
  %5 = alloca ptr, align 8
  %6 = alloca %"class.llvm::ilist_iterator_w_bits", align 8
  %7 = alloca { ptr, i64 }, align 8
  %8 = alloca %"class.llvm::ilist_iterator_w_bits", align 8
  %9 = alloca { ptr, i64 }, align 8
  %10 = alloca ptr, align 8
  store ptr %0, ptr %3, align 8
  store ptr %1, ptr %4, align 8
  %11 = load ptr, ptr %4, align 8
  store ptr %11, ptr %5, align 8
  %12 = load ptr, ptr %5, align 8
  %13 = call { ptr, i64 } @_ZN4llvm10BasicBlock5beginEv(ptr noundef nonnull align 8 dereferenceable(80) %12)
  store { ptr, i64 } %13, ptr %7, align 8
  call void @llvm.memcpy.p0.p0.i64(ptr align 8 %6, ptr align 8 %7, i64 10, i1 false)
  %14 = load ptr, ptr %5, align 8
  %15 = call { ptr, i64 } @_ZN4llvm10BasicBlock3endEv(ptr noundef nonnull align 8 dereferenceable(80) %14)
  store { ptr, i64 } %15, ptr %9, align 8
  call void @llvm.memcpy.p0.p0.i64(ptr align 8 %8, ptr align 8 %9, i64 10, i1 false)
  br label %16

16:                                               ; preds = %26, %2
  %17 = call noundef zeroext i1 @_ZN4llvmneERKNS_21ilist_iterator_w_bitsINS_12ilist_detail12node_optionsINS_11InstructionELb0ELb0EvLb1ENS_10BasicBlockEEELb0ELb0EEES8_(ptr noundef nonnull align 8 dereferenceable(10) %6, ptr noundef nonnull align 8 dereferenceable(10) %8)
  br i1 %17, label %18, label %28

18:                                               ; preds = %16
  %19 = call noundef nonnull align 8 dereferenceable(72) ptr @_ZNK4llvm21ilist_iterator_w_bitsINS_12ilist_detail12node_optionsINS_11InstructionELb0ELb0EvLb1ENS_10BasicBlockEEELb0ELb0EEdeEv(ptr noundef nonnull align 8 dereferenceable(10) %6)
  store ptr %19, ptr %10, align 8
  %20 = load ptr, ptr %10, align 8
  %21 = call noundef zeroext i1 @_ZNK4llvm11Instruction12isTerminatorEv(ptr noundef nonnull align 8 dereferenceable(72) %20)
  br i1 %21, label %22, label %23

22:                                               ; preds = %18
  br label %28

23:                                               ; preds = %18
  %24 = load ptr, ptr %3, align 8
  %25 = load ptr, ptr %10, align 8
  call void @_ZN4llvm23SmallVectorTemplateBaseIPNS_5ValueELb1EE9push_backES2_(ptr noundef nonnull align 8 dereferenceable(16) %24, ptr noundef %25)
  br label %26

26:                                               ; preds = %23
  %27 = call noundef nonnull align 8 dereferenceable(10) ptr @_ZN4llvm21ilist_iterator_w_bitsINS_12ilist_detail12node_optionsINS_11InstructionELb0ELb0EvLb1ENS_10BasicBlockEEELb0ELb0EEppEv(ptr noundef nonnull align 8 dereferenceable(10) %6)
  br label %16

28:                                               ; preds = %22, %16
  ret void
}