; Function Attrs: mustprogress nounwind uwtable
define dso_local void @_ZN4llvm17GenericSSAContextINS_8FunctionEE15appendBlockDefsERNS_15SmallVectorImplIPNS_5ValueEEERNS_10BasicBlockE(ptr noundef nonnull align 8 dereferenceable(16) %0, ptr noundef nonnull readonly align 8 dereferenceable(80) %1) local_unnamed_addr #0 align 2 {
  %3 = getelementptr inbounds i8, ptr %1, i64 56
  %4 = getelementptr inbounds nuw i8, ptr %1, i64 48
  %.sroa.012.015 = load ptr, ptr %3, align 8
  %.not16 = icmp eq ptr %.sroa.012.015, %4
  br i1 %.not16, label %._crit_edge, label %.lr.ph

.lr.ph:                                           ; preds = %2
  %5 = getelementptr inbounds i8, ptr %0, i64 16
  br label %6

6:                                                ; preds = %.lr.ph, %_ZN4llvm23SmallVectorTemplateBaseIPNS_5ValueELb1EE9push_backES2_.exit
  %.sroa.012.017 = phi ptr [ %.sroa.012.015, %.lr.ph ], [ %.sroa.012.0, %_ZN4llvm23SmallVectorTemplateBaseIPNS_5ValueELb1EE9push_backES2_.exit ]
  %7 = icmp eq ptr %.sroa.012.017, null
  %8 = getelementptr inbounds i8, ptr %.sroa.012.017, i64 -24
  %9 = select i1 %7, ptr null, ptr %8
  %10 = load i8, ptr %9, align 8
  %11 = zext i8 %10 to i32
  %12 = add nsw i32 %11, -30
  %13 = icmp ult i32 %12, 11
  br i1 %13, label %._crit_edge, label %14

14:                                               ; preds = %6
  %15 = tail call noundef i64 @_ZNK4llvm15SmallVectorBaseIjE4sizeEv(ptr noundef nonnull align 8 dereferenceable(16) %0) #9
  %16 = add i64 %15, 1
  %17 = tail call noundef i64 @_ZNK4llvm15SmallVectorBaseIjE8capacityEv(ptr noundef nonnull align 8 dereferenceable(16) %0) #9
  %.not.i.i.i = icmp ugt i64 %16, %17
  br i1 %.not.i.i.i, label %18, label %_ZN4llvm23SmallVectorTemplateBaseIPNS_5ValueELb1EE9push_backES2_.exit

18:                                               ; preds = %14
  tail call void @_ZN4llvm15SmallVectorBaseIjE8grow_podEPvmm(ptr noundef nonnull align 8 dereferenceable(16) %0, ptr noundef nonnull %5, i64 noundef %16, i64 noundef 8) #9
  br label %_ZN4llvm23SmallVectorTemplateBaseIPNS_5ValueELb1EE9push_backES2_.exit

_ZN4llvm23SmallVectorTemplateBaseIPNS_5ValueELb1EE9push_backES2_.exit: ; preds = %14, %18
  %19 = load ptr, ptr %0, align 8
  %20 = tail call noundef i64 @_ZNK4llvm15SmallVectorBaseIjE4sizeEv(ptr noundef nonnull align 8 dereferenceable(16) %0) #9
  %21 = getelementptr inbounds ptr, ptr %19, i64 %20
  %22 = ptrtoint ptr %9 to i64
  store i64 %22, ptr %21, align 1
  %23 = tail call noundef i64 @_ZNK4llvm15SmallVectorBaseIjE4sizeEv(ptr noundef nonnull align 8 dereferenceable(16) %0) #9
  %24 = add i64 %23, 1
  tail call void @_ZN4llvm15SmallVectorBaseIjE8set_sizeEm(ptr noundef nonnull align 8 dereferenceable(16) %0, i64 noundef %24) #9
  %25 = getelementptr inbounds nuw i8, ptr %.sroa.012.017, i64 8
  %.sroa.012.0 = load ptr, ptr %25, align 8
  %.not = icmp eq ptr %.sroa.012.0, %4
  br i1 %.not, label %._crit_edge, label %6

._crit_edge:                                      ; preds = %_ZN4llvm23SmallVectorTemplateBaseIPNS_5ValueELb1EE9push_backES2_.exit, %6, %2
  ret void
}